target datalayout = "e-m:e-p270:32:32-p271:32:32-p272:64:64-i64:64-i128:128-f80:128-n8:16:32:64-S128"
target triple = "x86_64-pc-linux-gnu"

%struct._lv_spinbox_t = type { %struct._lv_textarea_t, i32, i32, i32, i32, i16 }
%struct._lv_textarea_t = type { %struct._lv_obj_t, ptr, ptr, ptr, ptr, ptr, i32, i32, %struct.anon, i32, i32, i8 }
%struct._lv_obj_t = type { ptr, ptr, ptr, ptr, ptr, %struct.lv_area_t, i32, i16, i16 }
%struct.lv_area_t = type { i32, i32, i32, i32 }
%struct.anon = type { i32, i32, %struct.lv_area_t, i32, i8 }

; Function Attrs: nounwind uwtable
define void @lv_spinbox_step_next(ptr noundef %0) #0 {
  %2 = alloca ptr, align 8
  %3 = alloca ptr, align 8
  %4 = alloca i32, align 4
  store ptr %0, ptr %2, align 8, !tbaa !3
  br label %5

5:                                                ; preds = %1
  br label %6

6:                                                ; preds = %5
  call void @llvm.lifetime.start.p0(i64 8, ptr %3) #4
  %7 = load ptr, ptr %2, align 8, !tbaa !3
  store ptr %7, ptr %3, align 8, !tbaa !3
  call void @llvm.lifetime.start.p0(i64 4, ptr %4) #4
  %8 = load ptr, ptr %3, align 8, !tbaa !3
  %9 = getelementptr inbounds nuw %struct._lv_spinbox_t, ptr %8, i32 0, i32 4
  %10 = load i32, ptr %9, align 4, !tbaa !15
  %11 = sdiv i32 %10, 10
  store i32 %11, ptr %4, align 4, !tbaa !18
  %12 = load i32, ptr %4, align 4, !tbaa !18
  %13 = icmp sgt i32 %12, 0
  br i1 %13, label %14, label %16

14:                                               ; preds = %6
  %15 = load i32, ptr %4, align 4, !tbaa !18
  br label %17

16:                                               ; preds = %6
  br label %17

17:                                               ; preds = %16, %14
  %18 = phi i32 [ %15, %14 ], [ 1, %16 ]
  %19 = load ptr, ptr %3, align 8, !tbaa !3
  %20 = getelementptr inbounds nuw %struct._lv_spinbox_t, ptr %19, i32 0, i32 4
  store i32 %18, ptr %20, align 4, !tbaa !15
  %21 = load ptr, ptr %2, align 8, !tbaa !3
  call void @lv_spinbox_updatevalue(ptr noundef %21)
  call void @llvm.lifetime.end.p0(i64 4, ptr %4) #4
  call void @llvm.lifetime.end.p0(i64 8, ptr %3) #4
  ret void
}