; Function Attrs: nounwind uwtable
define void @lv_spinbox_step_next(ptr noundef %0) local_unnamed_addr #0 {
  %2 = getelementptr inbounds nuw i8, ptr %0, i64 172
  %3 = load i32, ptr %2, align 4, !tbaa !14
  %4 = sdiv i32 %3, 10
  %5 = icmp sgt i32 %3, 9
  %6 = select i1 %5, i32 %4, i32 1
  store i32 %6, ptr %2, align 4, !tbaa !14
  tail call fastcc void @lv_spinbox_updatevalue(ptr noundef %0)
  ret void
}